; Function Attrs: mustprogress nounwind uwtable
define internal fastcc void @"_ZN5boost4asio6detail17executor_function4implINS1_7binder2IZZZZ4mainENK3$_0clEvENKUlRKNS_6system10error_codeEE_clES9_ENKUlvE_clEvEUlS9_mE_S7_mEESaIvEE3ptrD2Ev"(ptr noundef nonnull align 8 captures(none) dereferenceable(24) %0) unnamed_addr #11 align 2 personality ptr @__gxx_personality_v0 {
  %2 = getelementptr inbounds nuw i8, ptr %0, i64 16
  %3 = load ptr, ptr %2, align 8, !tbaa !920
  %.not.i = icmp eq ptr %3, null
  br i1 %.not.i, label %5, label %4

4:                                                ; preds = %1
  store ptr null, ptr %2, align 8, !tbaa !920
  br label %5

5:                                                ; preds = %4, %1
  %6 = getelementptr inbounds nuw i8, ptr %0, i64 8
  %7 = load ptr, ptr %6, align 8, !tbaa !923
  %.not1.i = icmp eq ptr %7, null
  br i1 %.not1.i, label %"_ZN5boost4asio6detail17executor_function4implINS1_7binder2IZZZZ4mainENK3$_0clEvENKUlRKNS_6system10error_codeEE_clES9_ENKUlvE_clEvEUlS9_mE_S7_mEESaIvEE3ptr5resetEv.exit", label %8

8:                                                ; preds = %5
  %9 = tail call align 8 ptr @llvm.threadlocal.address.p0(ptr align 8 @_ZN5boost4asio6detail15keyword_tss_ptrINS1_10call_stackINS1_14thread_contextENS1_16thread_info_baseEE7contextEE6value_E)
  %10 = load ptr, ptr %9, align 8, !tbaa !293
  %.not.i.i.i = icmp eq ptr %10, null
  br i1 %.not.i.i.i, label %_ZN5boost4asio6detail10call_stackINS1_14thread_contextENS1_16thread_info_baseEE3topEv.exit.thread.i.i, label %_ZN5boost4asio6detail10call_stackINS1_14thread_contextENS1_16thread_info_baseEE3topEv.exit.i.i

_ZN5boost4asio6detail10call_stackINS1_14thread_contextENS1_16thread_info_baseEE3topEv.exit.i.i: ; preds = %8
  %11 = getelementptr inbounds nuw i8, ptr %10, i64 8
  %12 = load ptr, ptr %11, align 8, !tbaa !292
  %.not.i.i = icmp eq ptr %12, null
  br i1 %.not.i.i, label %_ZN5boost4asio6detail10call_stackINS1_14thread_contextENS1_16thread_info_baseEE3topEv.exit.thread.i.i, label %13

13:                                               ; preds = %_ZN5boost4asio6detail10call_stackINS1_14thread_contextENS1_16thread_info_baseEE3topEv.exit.i.i
  %14 = getelementptr inbounds nuw i8, ptr %12, i64 16
  %15 = load ptr, ptr %14, align 8, !tbaa !79
  %16 = icmp eq ptr %15, null
  br i1 %16, label %17, label %_ZN5boost4asio6detail10call_stackINS1_14thread_contextENS1_16thread_info_baseEE3topEv.exit.thread.i.i

17:                                               ; preds = %13
  %18 = getelementptr inbounds nuw i8, ptr %7, i64 56
  %19 = load i8, ptr %18, align 1, !tbaa !19
  store i8 %19, ptr %7, align 1, !tbaa !19
  store ptr %7, ptr %14, align 8, !tbaa !79
  br label %"_ZN5boost4asio6detail19recycling_allocatorINS1_17executor_function4implINS1_7binder2IZZZZ4mainENK3$_0clEvENKUlRKNS_6system10error_codeEE_clESA_ENKUlvE_clEvEUlSA_mE_S8_mEESaIvEEENS1_16thread_info_base21executor_function_tagEE10deallocateEPSG_m.exit.i"

_ZN5boost4asio6detail10call_stackINS1_14thread_contextENS1_16thread_info_baseEE3topEv.exit.thread.i.i: ; preds = %13, %_ZN5boost4asio6detail10call_stackINS1_14thread_contextENS1_16thread_info_baseEE3topEv.exit.i.i, %8
  tail call void @_ZdlPv(ptr noundef nonnull %7) #36
  br label %"_ZN5boost4asio6detail19recycling_allocatorINS1_17executor_function4implINS1_7binder2IZZZZ4mainENK3$_0clEvENKUlRKNS_6system10error_codeEE_clESA_ENKUlvE_clEvEUlSA_mE_S8_mEESaIvEEENS1_16thread_info_base21executor_function_tagEE10deallocateEPSG_m.exit.i"

"_ZN5boost4asio6detail19recycling_allocatorINS1_17executor_function4implINS1_7binder2IZZZZ4mainENK3$_0clEvENKUlRKNS_6system10error_codeEE_clESA_ENKUlvE_clEvEUlSA_mE_S8_mEESaIvEEENS1_16thread_info_base21executor_function_tagEE10deallocateEPSG_m.exit.i": ; preds = %_ZN5boost4asio6detail10call_stackINS1_14thread_contextENS1_16thread_info_baseEE3topEv.exit.thread.i.i, %17
  store ptr null, ptr %6, align 8, !tbaa !923
  br label %"_ZN5boost4asio6detail17executor_function4implINS1_7binder2IZZZZ4mainENK3$_0clEvENKUlRKNS_6system10error_codeEE_clES9_ENKUlvE_clEvEUlS9_mE_S7_mEESaIvEE3ptr5resetEv.exit"

"_ZN5boost4asio6detail17executor_function4implINS1_7binder2IZZZZ4mainENK3$_0clEvENKUlRKNS_6system10error_codeEE_clES9_ENKUlvE_clEvEUlS9_mE_S7_mEESaIvEE3ptr5resetEv.exit": ; preds = %"_ZN5boost4asio6detail19recycling_allocatorINS1_17executor_function4implINS1_7binder2IZZZZ4mainENK3$_0clEvENKUlRKNS_6system10error_codeEE_clESA_ENKUlvE_clEvEUlSA_mE_S8_mEESaIvEEENS1_16thread_info_base21executor_function_tagEE10deallocateEPSG_m.exit.i", %5
  ret void
}